#include <math.h>
#include <stdio.h>
#include <stdlib.h>
#include <string.h>

int main()
{
	int n,i;
	double a,b,c,m,x1,x2;
	scanf("%d",&n);
	for(i=1;i<=n;i++)
	{
		scanf("%lf %lf %lf",&a,&b,&c);
        m=b*b-4*a*c;
		if(m>0)
		{
			x1=(-b+sqrt(m))/(2*a);
			x2=(-b-sqrt(m))/(2*a);
			printf("x1=%.5lf;x2=%.5lf\n",x1,x2);
		}
		else if(m==0)
		{
			x1=-b/(2*a);
			printf("x1=x2=%.5lf\n",x1);
		}
		else
		{
			x1=-b/(2*a);
			x2=sqrt(-m)/(2*a);
			printf("x1=%.5lf+%.5lfi;x2=%.5lf-%.5lfi\n",x1,x2,x1,x2);
		}
	}
	return 0;
}